target datalayout = "e-m:e-p270:32:32-p271:32:32-p272:64:64-i64:64-i128:128-f80:128-n8:16:32:64-S128"
target triple = "x86_64-pc-linux-gnu"

%"class.Ipopt::TNLPReducer" = type { %"class.Ipopt::TNLP.base", %"class.Ipopt::SmartPtr", i32, i32, i32, ptr, i32, ptr, i32, i32, i32, ptr, i32, ptr, i32, ptr, i32, ptr }
%"class.Ipopt::TNLP.base" = type { %"class.Ipopt::ReferencedObject.base" }
%"class.Ipopt::ReferencedObject.base" = type <{ ptr, i32 }>
%"class.Ipopt::SmartPtr" = type { ptr }

; Function Attrs: mustprogress nounwind uwtable
define linkonce_odr noundef double @_ZNSt14numeric_limitsIdE3maxEv() #3 comdat align 2 {
  ret double 0x7FEFFFFFFFFFFFFF
}

; Function Attrs: mustprogress nounwind uwtable
define linkonce_odr noundef ptr @_ZNK5Ipopt8SmartPtrINS_4TNLPEEptEv(ptr noundef nonnull align 8 dereferenceable(8) %0) #3 comdat align 2 {
  %2 = alloca ptr, align 8
  store ptr %0, ptr %2, align 8
  %3 = load ptr, ptr %2, align 8
  %4 = getelementptr inbounds %"class.Ipopt::SmartPtr", ptr %3, i32 0, i32 0
  %5 = load ptr, ptr %4, align 8
  ret ptr %5
}

; Function Attrs: mustprogress uwtable
define noundef zeroext i1 @_ZN5Ipopt11TNLPReducer15get_bounds_infoEiPdS1_iS1_S1_(ptr noundef nonnull align 8 dereferenceable(136) %0, i32 noundef %1, ptr noundef %2, ptr noundef %3, i32 noundef %4, ptr noundef %5, ptr noundef %6) unnamed_addr #0 align 2 {
  %8 = alloca i1, align 1
  %9 = alloca ptr, align 8
  %10 = alloca i32, align 4
  %11 = alloca ptr, align 8
  %12 = alloca ptr, align 8
  %13 = alloca i32, align 4
  %14 = alloca ptr, align 8
  %15 = alloca ptr, align 8
  %16 = alloca ptr, align 8
  %17 = alloca ptr, align 8
  %18 = alloca i8, align 1
  %19 = alloca double, align 8
  %20 = alloca ptr, align 8
  %21 = alloca i32, align 4
  %22 = alloca i32, align 4
  %23 = alloca i32, align 4
  %24 = alloca i32, align 4
  %25 = alloca i32, align 4
  %26 = alloca ptr, align 8
  store ptr %0, ptr %9, align 8
  store i32 %1, ptr %10, align 4
  store ptr %2, ptr %11, align 8
  store ptr %3, ptr %12, align 8
  store i32 %4, ptr %13, align 4
  store ptr %5, ptr %14, align 8
  store ptr %6, ptr %15, align 8
  %27 = load ptr, ptr %9, align 8
  %28 = getelementptr inbounds %"class.Ipopt::TNLPReducer", ptr %27, i32 0, i32 2
  %29 = load i32, ptr %28, align 8
  %30 = sext i32 %29 to i64
  %31 = call { i64, i1 } @llvm.umul.with.overflow.i64(i64 %30, i64 8)
  %32 = extractvalue { i64, i1 } %31, 1
  %33 = extractvalue { i64, i1 } %31, 0
  %34 = select i1 %32, i64 -1, i64 %33
  %35 = call noalias noundef nonnull ptr @_Znam(i64 noundef %34) #8
  store ptr %35, ptr %16, align 8
  %36 = getelementptr inbounds %"class.Ipopt::TNLPReducer", ptr %27, i32 0, i32 2
  %37 = load i32, ptr %36, align 8
  %38 = sext i32 %37 to i64
  %39 = call { i64, i1 } @llvm.umul.with.overflow.i64(i64 %38, i64 8)
  %40 = extractvalue { i64, i1 } %39, 1
  %41 = extractvalue { i64, i1 } %39, 0
  %42 = select i1 %40, i64 -1, i64 %41
  %43 = call noalias noundef nonnull ptr @_Znam(i64 noundef %42) #8
  store ptr %43, ptr %17, align 8
  %44 = getelementptr inbounds %"class.Ipopt::TNLPReducer", ptr %27, i32 0, i32 1
  %45 = call noundef ptr @_ZNK5Ipopt8SmartPtrINS_4TNLPEEptEv(ptr noundef nonnull align 8 dereferenceable(8) %44)
  %46 = load i32, ptr %10, align 4
  %47 = load ptr, ptr %11, align 8
  %48 = load ptr, ptr %12, align 8
  %49 = getelementptr inbounds %"class.Ipopt::TNLPReducer", ptr %27, i32 0, i32 2
  %50 = load i32, ptr %49, align 8
  %51 = load ptr, ptr %16, align 8
  %52 = load ptr, ptr %17, align 8
  %53 = load ptr, ptr %45, align 8
  %54 = getelementptr inbounds ptr, ptr %53, i64 4
  %55 = load ptr, ptr %54, align 8
  %56 = call noundef zeroext i1 %55(ptr noundef nonnull align 8 dereferenceable(12) %45, i32 noundef %46, ptr noundef %47, ptr noundef %48, i32 noundef %50, ptr noundef %51, ptr noundef %52)
  %57 = zext i1 %56 to i8
  store i8 %57, ptr %18, align 1
  %58 = load i8, ptr %18, align 1
  %59 = trunc i8 %58 to i1
  br i1 %59, label %60, label %214

60:                                               ; preds = %7
  %61 = getelementptr inbounds %"class.Ipopt::TNLPReducer", ptr %27, i32 0, i32 16
  %62 = load i32, ptr %61, align 8
  %63 = icmp sgt i32 %62, 0
  br i1 %63, label %72, label %64

64:                                               ; preds = %60
  %65 = getelementptr inbounds %"class.Ipopt::TNLPReducer", ptr %27, i32 0, i32 12
  %66 = load i32, ptr %65, align 8
  %67 = icmp sgt i32 %66, 0
  br i1 %67, label %72, label %68

68:                                               ; preds = %64
  %69 = getelementptr inbounds %"class.Ipopt::TNLPReducer", ptr %27, i32 0, i32 14
  %70 = load i32, ptr %69, align 8
  %71 = icmp sgt i32 %70, 0
  br i1 %71, label %72, label %173

72:                                               ; preds = %68, %64, %60
  %73 = call noundef double @_ZNSt14numeric_limitsIdE3maxEv() #9
  store double %73, ptr %19, align 8
  store ptr null, ptr %20, align 8
  %74 = getelementptr inbounds %"class.Ipopt::TNLPReducer", ptr %27, i32 0, i32 16
  %75 = load i32, ptr %74, align 8
  %76 = icmp sgt i32 %75, 0
  br i1 %76, label %77, label %97

77:                                               ; preds = %72
  %78 = load i32, ptr %10, align 4
  %79 = sext i32 %78 to i64
  %80 = call { i64, i1 } @llvm.umul.with.overflow.i64(i64 %79, i64 8)
  %81 = extractvalue { i64, i1 } %80, 1
  %82 = extractvalue { i64, i1 } %80, 0
  %83 = select i1 %81, i64 -1, i64 %82
  %84 = call noalias noundef nonnull ptr @_Znam(i64 noundef %83) #8
  store ptr %84, ptr %20, align 8
  %85 = getelementptr inbounds %"class.Ipopt::TNLPReducer", ptr %27, i32 0, i32 1
  %86 = call noundef ptr @_ZNK5Ipopt8SmartPtrINS_4TNLPEEptEv(ptr noundef nonnull align 8 dereferenceable(8) %85)
  %87 = load i32, ptr %10, align 4
  %88 = load ptr, ptr %20, align 8
  %89 = getelementptr inbounds %"class.Ipopt::TNLPReducer", ptr %27, i32 0, i32 2
  %90 = load i32, ptr %89, align 8
  %91 = load ptr, ptr %86, align 8
  %92 = getelementptr inbounds ptr, ptr %91, i64 8
  %93 = load ptr, ptr %92, align 8
  %94 = call noundef zeroext i1 %93(ptr noundef nonnull align 8 dereferenceable(12) %86, i32 noundef %87, i1 noundef zeroext true, ptr noundef %88, i1 noundef zeroext false, ptr noundef null, ptr noundef null, i32 noundef %90, i1 noundef zeroext false, ptr noundef null)
  br i1 %94, label %96, label %95

95:                                               ; preds = %77
  store i1 false, ptr %8, align 1
  br label %225

96:                                               ; preds = %77
  br label %97

97:                                               ; preds = %96, %72
  store i32 0, ptr %21, align 4
  store i32 0, ptr %22, align 4
  store i32 0, ptr %23, align 4
  store i32 0, ptr %24, align 4
  br label %98

98:                                               ; preds = %165, %97
  %99 = load i32, ptr %24, align 4
  %100 = load i32, ptr %10, align 4
  %101 = icmp slt i32 %99, %100
  br i1 %101, label %102, label %168

102:                                              ; preds = %98
  %103 = getelementptr inbounds %"class.Ipopt::TNLPReducer", ptr %27, i32 0, i32 13
  %104 = load ptr, ptr %103, align 8
  %105 = load i32, ptr %21, align 4
  %106 = sext i32 %105 to i64
  %107 = getelementptr inbounds i32, ptr %104, i64 %106
  %108 = load i32, ptr %107, align 4
  %109 = load i32, ptr %24, align 4
  %110 = icmp eq i32 %108, %109
  br i1 %110, label %111, label %118

111:                                              ; preds = %102
  %112 = load ptr, ptr %11, align 8
  %113 = load i32, ptr %24, align 4
  %114 = sext i32 %113 to i64
  %115 = getelementptr inbounds double, ptr %112, i64 %114
  store double 0xFFEFFFFFFFFFFFFF, ptr %115, align 8
  %116 = load i32, ptr %21, align 4
  %117 = add nsw i32 %116, 1
  store i32 %117, ptr %21, align 4
  br label %118

118:                                              ; preds = %111, %102
  %119 = getelementptr inbounds %"class.Ipopt::TNLPReducer", ptr %27, i32 0, i32 15
  %120 = load ptr, ptr %119, align 8
  %121 = load i32, ptr %22, align 4
  %122 = sext i32 %121 to i64
  %123 = getelementptr inbounds i32, ptr %120, i64 %122
  %124 = load i32, ptr %123, align 4
  %125 = load i32, ptr %24, align 4
  %126 = icmp eq i32 %124, %125
  br i1 %126, label %127, label %134

127:                                              ; preds = %118
  %128 = load ptr, ptr %12, align 8
  %129 = load i32, ptr %24, align 4
  %130 = sext i32 %129 to i64
  %131 = getelementptr inbounds double, ptr %128, i64 %130
  store double 0x7FEFFFFFFFFFFFFF, ptr %131, align 8
  %132 = load i32, ptr %22, align 4
  %133 = add nsw i32 %132, 1
  store i32 %133, ptr %22, align 4
  br label %134

134:                                              ; preds = %127, %118
  %135 = getelementptr inbounds %"class.Ipopt::TNLPReducer", ptr %27, i32 0, i32 17
  %136 = load ptr, ptr %135, align 8
  %137 = load i32, ptr %23, align 4
  %138 = sext i32 %137 to i64
  %139 = getelementptr inbounds i32, ptr %136, i64 %138
  %140 = load i32, ptr %139, align 4
  %141 = load i32, ptr %24, align 4
  %142 = icmp eq i32 %140, %141
  br i1 %142, label %143, label %164

143:                                              ; preds = %134
  %144 = load ptr, ptr %20, align 8
  %145 = load i32, ptr %24, align 4
  %146 = sext i32 %145 to i64
  %147 = getelementptr inbounds double, ptr %144, i64 %146
  %148 = load double, ptr %147, align 8
  %149 = load ptr, ptr %11, align 8
  %150 = load i32, ptr %24, align 4
  %151 = sext i32 %150 to i64
  %152 = getelementptr inbounds double, ptr %149, i64 %151
  store double %148, ptr %152, align 8
  %153 = load ptr, ptr %20, align 8
  %154 = load i32, ptr %24, align 4
  %155 = sext i32 %154 to i64
  %156 = getelementptr inbounds double, ptr %153, i64 %155
  %157 = load double, ptr %156, align 8
  %158 = load ptr, ptr %12, align 8
  %159 = load i32, ptr %24, align 4
  %160 = sext i32 %159 to i64
  %161 = getelementptr inbounds double, ptr %158, i64 %160
  store double %157, ptr %161, align 8
  %162 = load i32, ptr %23, align 4
  %163 = add nsw i32 %162, 1
  store i32 %163, ptr %23, align 4
  br label %164

164:                                              ; preds = %143, %134
  br label %165

165:                                              ; preds = %164
  %166 = load i32, ptr %24, align 4
  %167 = add nsw i32 %166, 1
  store i32 %167, ptr %24, align 4
  br label %98, !llvm.loop !15

168:                                              ; preds = %98
  %169 = load ptr, ptr %20, align 8
  %170 = icmp eq ptr %169, null
  br i1 %170, label %172, label %171

171:                                              ; preds = %168
  call void @_ZdaPv(ptr noundef %169) #11
  br label %172

172:                                              ; preds = %171, %168
  br label %173

173:                                              ; preds = %172, %68
  store i32 0, ptr %25, align 4
  br label %174

174:                                              ; preds = %210, %173
  %175 = load i32, ptr %25, align 4
  %176 = getelementptr inbounds %"class.Ipopt::TNLPReducer", ptr %27, i32 0, i32 2
  %177 = load i32, ptr %176, align 8
  %178 = icmp slt i32 %175, %177
  br i1 %178, label %179, label %213

179:                                              ; preds = %174
  %180 = getelementptr inbounds %"class.Ipopt::TNLPReducer", ptr %27, i32 0, i32 7
  %181 = load ptr, ptr %180, align 8
  %182 = load i32, ptr %25, align 4
  %183 = sext i32 %182 to i64
  %184 = getelementptr inbounds i32, ptr %181, i64 %183
  store ptr %184, ptr %26, align 8
  %185 = load ptr, ptr %26, align 8
  %186 = load i32, ptr %185, align 4
  %187 = icmp sge i32 %186, 0
  br i1 %187, label %188, label %209

188:                                              ; preds = %179
  %189 = load ptr, ptr %16, align 8
  %190 = load i32, ptr %25, align 4
  %191 = sext i32 %190 to i64
  %192 = getelementptr inbounds double, ptr %189, i64 %191
  %193 = load double, ptr %192, align 8
  %194 = load ptr, ptr %14, align 8
  %195 = load ptr, ptr %26, align 8
  %196 = load i32, ptr %195, align 4
  %197 = sext i32 %196 to i64
  %198 = getelementptr inbounds double, ptr %194, i64 %197
  store double %193, ptr %198, align 8
  %199 = load ptr, ptr %17, align 8
  %200 = load i32, ptr %25, align 4
  %201 = sext i32 %200 to i64
  %202 = getelementptr inbounds double, ptr %199, i64 %201
  %203 = load double, ptr %202, align 8
  %204 = load ptr, ptr %15, align 8
  %205 = load ptr, ptr %26, align 8
  %206 = load i32, ptr %205, align 4
  %207 = sext i32 %206 to i64
  %208 = getelementptr inbounds double, ptr %204, i64 %207
  store double %203, ptr %208, align 8
  br label %209

209:                                              ; preds = %188, %179
  br label %210

210:                                              ; preds = %209
  %211 = load i32, ptr %25, align 4
  %212 = add nsw i32 %211, 1
  store i32 %212, ptr %25, align 4
  br label %174, !llvm.loop !16

213:                                              ; preds = %174
  br label %214

214:                                              ; preds = %213, %7
  %215 = load ptr, ptr %16, align 8
  %216 = icmp eq ptr %215, null
  br i1 %216, label %218, label %217

217:                                              ; preds = %214
  call void @_ZdaPv(ptr noundef %215) #11
  br label %218

218:                                              ; preds = %217, %214
  %219 = load ptr, ptr %17, align 8
  %220 = icmp eq ptr %219, null
  br i1 %220, label %222, label %221

221:                                              ; preds = %218
  call void @_ZdaPv(ptr noundef %219) #11
  br label %222

222:                                              ; preds = %221, %218
  %223 = load i8, ptr %18, align 1
  %224 = trunc i8 %223 to i1
  store i1 %224, ptr %8, align 1
  br label %225

225:                                              ; preds = %222, %95
  %226 = load i1, ptr %8, align 1
  ret i1 %226
}