; Function Attrs: mustprogress uwtable
define noundef zeroext i1 @_ZN5Ipopt11TNLPReducer15get_bounds_infoEiPdS1_iS1_S1_(ptr nocapture noundef nonnull readonly align 8 dereferenceable(136) %0, i32 noundef %1, ptr noundef %2, ptr noundef %3, i32 %4, ptr nocapture noundef writeonly %5, ptr nocapture noundef writeonly %6) unnamed_addr #0 align 2 {
  %8 = getelementptr inbounds i8, ptr %0, i64 24
  %9 = load i32, ptr %8, align 8
  %10 = sext i32 %9 to i64
  %11 = icmp slt i32 %9, 0
  %12 = shl nsw i64 %10, 3
  %13 = select i1 %11, i64 -1, i64 %12
  %14 = tail call noalias noundef nonnull ptr @_Znam(i64 noundef %13) #8
  %15 = tail call noalias noundef nonnull ptr @_Znam(i64 noundef %13) #8
  %16 = getelementptr inbounds i8, ptr %0, i64 16
  %17 = load ptr, ptr %16, align 8
  %18 = load ptr, ptr %17, align 8
  %19 = getelementptr inbounds i8, ptr %18, i64 32
  %20 = load ptr, ptr %19, align 8
  %21 = tail call noundef zeroext i1 %20(ptr noundef nonnull align 8 dereferenceable(12) %17, i32 noundef %1, ptr noundef %2, ptr noundef %3, i32 noundef %9, ptr noundef nonnull %14, ptr noundef nonnull %15)
  br i1 %21, label %22, label %.loopexit

22:                                               ; preds = %7
  %23 = getelementptr inbounds i8, ptr %0, i64 120
  %24 = load i32, ptr %23, align 8
  %25 = icmp sgt i32 %24, 0
  %26 = getelementptr inbounds i8, ptr %0, i64 88
  %27 = load i32, ptr %26, align 8
  %28 = icmp sgt i32 %27, 0
  %or.cond = select i1 %25, i1 true, i1 %28
  %29 = getelementptr inbounds i8, ptr %0, i64 104
  %30 = load i32, ptr %29, align 8
  %31 = icmp sgt i32 %30, 0
  %or.cond63 = select i1 %or.cond, i1 true, i1 %31
  br i1 %or.cond63, label %32, label %86

32:                                               ; preds = %22
  br i1 %25, label %33, label %45

33:                                               ; preds = %32
  %34 = zext nneg i32 %1 to i64
  %35 = icmp slt i32 %1, 0
  %36 = shl nuw nsw i64 %34, 3
  %37 = select i1 %35, i64 -1, i64 %36
  %38 = tail call noalias noundef nonnull ptr @_Znam(i64 noundef %37) #8
  %39 = load ptr, ptr %16, align 8
  %40 = load i32, ptr %8, align 8
  %41 = load ptr, ptr %39, align 8
  %42 = getelementptr inbounds i8, ptr %41, i64 64
  %43 = load ptr, ptr %42, align 8
  %44 = tail call noundef zeroext i1 %43(ptr noundef nonnull align 8 dereferenceable(12) %39, i32 noundef %1, i1 noundef zeroext true, ptr noundef nonnull %38, i1 noundef zeroext false, ptr noundef null, ptr noundef null, i32 noundef %40, i1 noundef zeroext false, ptr noundef null)
  br i1 %44, label %45, label %110

45:                                               ; preds = %33, %32
  %.057 = phi ptr [ %38, %33 ], [ null, %32 ]
  %46 = icmp sgt i32 %1, 0
  br i1 %46, label %.lr.ph, label %._crit_edge

.lr.ph:                                           ; preds = %45
  %47 = getelementptr inbounds i8, ptr %0, i64 96
  %48 = getelementptr inbounds i8, ptr %0, i64 112
  %49 = getelementptr inbounds i8, ptr %0, i64 128
  %wide.trip.count = zext nneg i32 %1 to i64
  br label %50

50:                                               ; preds = %.lr.ph, %83
  %indvars.iv = phi i64 [ 0, %.lr.ph ], [ %indvars.iv.next, %83 ]
  %.05266 = phi i32 [ 0, %.lr.ph ], [ %.1, %83 ]
  %.05365 = phi i32 [ 0, %.lr.ph ], [ %.154, %83 ]
  %.05564 = phi i32 [ 0, %.lr.ph ], [ %.156, %83 ]
  %51 = load ptr, ptr %47, align 8
  %52 = sext i32 %.05564 to i64
  %53 = getelementptr inbounds i32, ptr %51, i64 %52
  %54 = load i32, ptr %53, align 4
  %55 = zext i32 %54 to i64
  %56 = icmp eq i64 %indvars.iv, %55
  br i1 %56, label %57, label %60

57:                                               ; preds = %50
  %58 = getelementptr inbounds double, ptr %2, i64 %indvars.iv
  store double 0xFFEFFFFFFFFFFFFF, ptr %58, align 8
  %59 = add nsw i32 %.05564, 1
  br label %60

60:                                               ; preds = %57, %50
  %.156 = phi i32 [ %59, %57 ], [ %.05564, %50 ]
  %61 = load ptr, ptr %48, align 8
  %62 = sext i32 %.05365 to i64
  %63 = getelementptr inbounds i32, ptr %61, i64 %62
  %64 = load i32, ptr %63, align 4
  %65 = zext i32 %64 to i64
  %66 = icmp eq i64 %indvars.iv, %65
  br i1 %66, label %67, label %70

67:                                               ; preds = %60
  %68 = getelementptr inbounds double, ptr %3, i64 %indvars.iv
  store double 0x7FEFFFFFFFFFFFFF, ptr %68, align 8
  %69 = add nsw i32 %.05365, 1
  br label %70

70:                                               ; preds = %67, %60
  %.154 = phi i32 [ %69, %67 ], [ %.05365, %60 ]
  %71 = load ptr, ptr %49, align 8
  %72 = sext i32 %.05266 to i64
  %73 = getelementptr inbounds i32, ptr %71, i64 %72
  %74 = load i32, ptr %73, align 4
  %75 = zext i32 %74 to i64
  %76 = icmp eq i64 %indvars.iv, %75
  br i1 %76, label %77, label %83

77:                                               ; preds = %70
  %78 = getelementptr inbounds double, ptr %.057, i64 %indvars.iv
  %79 = load double, ptr %78, align 8
  %80 = getelementptr inbounds double, ptr %2, i64 %indvars.iv
  store double %79, ptr %80, align 8
  %81 = getelementptr inbounds double, ptr %3, i64 %indvars.iv
  store double %79, ptr %81, align 8
  %82 = add nsw i32 %.05266, 1
  br label %83

83:                                               ; preds = %70, %77
  %.1 = phi i32 [ %82, %77 ], [ %.05266, %70 ]
  %indvars.iv.next = add nuw nsw i64 %indvars.iv, 1
  %exitcond.not = icmp eq i64 %indvars.iv.next, %wide.trip.count
  br i1 %exitcond.not, label %._crit_edge, label %50, !llvm.loop !15

._crit_edge:                                      ; preds = %83, %45
  %84 = icmp eq ptr %.057, null
  br i1 %84, label %86, label %85

85:                                               ; preds = %._crit_edge
  tail call void @_ZdaPv(ptr noundef nonnull %.057) #9
  br label %86

86:                                               ; preds = %22, %._crit_edge, %85
  %87 = load i32, ptr %8, align 8
  %88 = icmp sgt i32 %87, 0
  br i1 %88, label %.lr.ph70, label %.loopexit

.lr.ph70:                                         ; preds = %86
  %89 = getelementptr inbounds i8, ptr %0, i64 56
  br label %90

90:                                               ; preds = %.lr.ph70, %106
  %91 = phi i32 [ %87, %.lr.ph70 ], [ %107, %106 ]
  %indvars.iv72 = phi i64 [ 0, %.lr.ph70 ], [ %indvars.iv.next73, %106 ]
  %92 = load ptr, ptr %89, align 8
  %93 = getelementptr inbounds i32, ptr %92, i64 %indvars.iv72
  %94 = load i32, ptr %93, align 4
  %95 = icmp sgt i32 %94, -1
  br i1 %95, label %96, label %106

96:                                               ; preds = %90
  %97 = getelementptr inbounds double, ptr %14, i64 %indvars.iv72
  %98 = load double, ptr %97, align 8
  %99 = zext nneg i32 %94 to i64
  %100 = getelementptr inbounds double, ptr %5, i64 %99
  store double %98, ptr %100, align 8
  %101 = getelementptr inbounds double, ptr %15, i64 %indvars.iv72
  %102 = load double, ptr %101, align 8
  %103 = load i32, ptr %93, align 4
  %104 = sext i32 %103 to i64
  %105 = getelementptr inbounds double, ptr %6, i64 %104
  store double %102, ptr %105, align 8
  %.pre = load i32, ptr %8, align 8
  br label %106

106:                                              ; preds = %90, %96
  %107 = phi i32 [ %91, %90 ], [ %.pre, %96 ]
  %indvars.iv.next73 = add nuw nsw i64 %indvars.iv72, 1
  %108 = sext i32 %107 to i64
  %109 = icmp slt i64 %indvars.iv.next73, %108
  br i1 %109, label %90, label %.loopexit, !llvm.loop !16

.loopexit:                                        ; preds = %106, %86, %7
  tail call void @_ZdaPv(ptr noundef nonnull %14) #9
  tail call void @_ZdaPv(ptr noundef nonnull %15) #9
  br label %110

110:                                              ; preds = %33, %.loopexit
  %.0 = phi i1 [ %21, %.loopexit ], [ false, %33 ]
  ret i1 %.0
}